target datalayout = "e-m:e-p270:32:32-p271:32:32-p272:64:64-i64:64-i128:128-f80:128-n8:16:32:64-S128"
target triple = "x86_64-unknown-linux-gnu"

%struct.AddressSpace = type { %struct.rcu_head, ptr, ptr, ptr, i32, i32, ptr, %union.anon.0, %union.anon.1 }
%struct.rcu_head = type { ptr, ptr }
%union.anon.0 = type { %struct.QTailQLink }
%struct.QTailQLink = type { ptr, ptr }
%union.anon.1 = type { %struct.QTailQLink }
%struct.SDHCIState = type { %union.anon, %struct.SDBus, %struct.MemoryRegion, %struct.AddressSpace, ptr, ptr, ptr, ptr, ptr, ptr, i32, i16, i16, i32, i16, i16, [4 x i32], i32, i8, i8, i8, i8, i16, i8, i8, i16, i16, i16, i16, i16, i16, i16, i16, i64, i16, i64, i64, i16, ptr, i32, i16, i8, i8, i8, i32, i8, i8, i8, i8 }
%union.anon = type { %struct.PCIDevice }
%struct.PCIDevice = type { %struct.DeviceState, i8, i8, ptr, ptr, ptr, ptr, ptr, i32, %struct.PCIReqIDCache, [64 x i8], [7 x %struct.PCIIORegion], %struct.AddressSpace, %struct.MemoryRegion, %struct.MemoryRegion, ptr, ptr, [3 x ptr], i8, i8, i32, i8, i32, ptr, ptr, ptr, ptr, ptr, ptr, %struct.MemoryRegion, %struct.MemoryRegion, %struct.MemoryRegion, ptr, i8, i32, i8, %struct.PCIExpressDevice, ptr, ptr, i32, i8, %struct.MemoryRegion, i32, ptr, ptr, ptr, ptr, ptr, i32 }
%struct.DeviceState = type { %struct.Object, ptr, ptr, i8, i8, i64, ptr, i32, i8, ptr, %struct.NamedGPIOListHead, %struct.NamedClockListHead, %struct.BusStateHead, i32, i32, i32, %struct.ResettableState, ptr, %struct.MemReentrancyGuard }
%struct.Object = type { ptr, ptr, ptr, i32, ptr }
%struct.NamedGPIOListHead = type { ptr }
%struct.NamedClockListHead = type { ptr }
%struct.BusStateHead = type { ptr }
%struct.ResettableState = type { i32, i8, i8 }
%struct.MemReentrancyGuard = type { i8 }
%struct.PCIReqIDCache = type { ptr, i32 }
%struct.PCIIORegion = type { i64, i64, i8, ptr, ptr }
%struct.PCIExpressDevice = type { i8, i8, i8, i16, %struct.PCIEAERLog, i16, i16, i16, %struct.PCIESriovPF, %struct.PCIESriovVF }
%struct.PCIEAERLog = type { i16, i16, ptr }
%struct.PCIESriovPF = type { i16, [7 x i8], ptr, ptr }
%struct.PCIESriovVF = type { ptr, i16 }
%struct.SDBus = type { %struct.BusState }
%struct.BusState = type { %struct.Object, ptr, ptr, ptr, i32, i8, i8, i32, %union.BusChildHead, %struct.BusStateEntry, %struct.ResettableState }
%union.BusChildHead = type { %struct.QTailQLink }
%struct.BusStateEntry = type { ptr, ptr }
%struct.MemoryRegion = type { %struct.Object, i8, i8, i8, i8, i8, i8, i8, i8, i8, i8, ptr, ptr, ptr, ptr, ptr, ptr, i32, i128, i64, ptr, i64, i8, i8, i8, i8, i8, ptr, i64, i32, %union.anon.2, %union.anon.3, %union.anon.4, ptr, i32, ptr, ptr, i8 }
%union.anon.2 = type { %struct.QTailQLink }
%union.anon.3 = type { %struct.QTailQLink }
%union.anon.4 = type { %struct.QTailQLink }

@.str.51 = private unnamed_addr constant [100 x i8] c"/home/dtcxzyw/WorkSpace/Projects/compilers/llvm-opt-benchmark/bench/qemu/qemu/include/qemu/bitops.h\00", align 1
@.str.52 = private unnamed_addr constant [49 x i8] c"start >= 0 && length > 0 && length <= 32 - start\00", align 1
@__PRETTY_FUNCTION__.extract32 = private unnamed_addr constant [39 x i8] c"uint32_t extract32(uint32_t, int, int)\00", align 1

; Function Attrs: nounwind sspstrong uwtable
define internal zeroext i8 @sdhci_slotint(ptr noundef %s) #0 {
entry:
  %s.addr = alloca ptr, align 8
  store ptr %s, ptr %s.addr, align 8
  %0 = load ptr, ptr %s.addr, align 8
  %norintsts = getelementptr inbounds %struct.SDHCIState, ptr %0, i32 0, i32 25
  %1 = load i16, ptr %norintsts, align 4
  %conv = zext i16 %1 to i32
  %2 = load ptr, ptr %s.addr, align 8
  %norintsigen = getelementptr inbounds %struct.SDHCIState, ptr %2, i32 0, i32 29
  %3 = load i16, ptr %norintsigen, align 4
  %conv1 = zext i16 %3 to i32
  %and = and i32 %conv, %conv1
  %tobool = icmp ne i32 %and, 0
  br i1 %tobool, label %lor.end, label %lor.lhs.false

lor.lhs.false:                                    ; preds = %entry
  %4 = load ptr, ptr %s.addr, align 8
  %errintsts = getelementptr inbounds %struct.SDHCIState, ptr %4, i32 0, i32 26
  %5 = load i16, ptr %errintsts, align 2
  %conv2 = zext i16 %5 to i32
  %6 = load ptr, ptr %s.addr, align 8
  %errintsigen = getelementptr inbounds %struct.SDHCIState, ptr %6, i32 0, i32 30
  %7 = load i16, ptr %errintsigen, align 2
  %conv3 = zext i16 %7 to i32
  %and4 = and i32 %conv2, %conv3
  %tobool5 = icmp ne i32 %and4, 0
  br i1 %tobool5, label %lor.end, label %lor.lhs.false6

lor.lhs.false6:                                   ; preds = %lor.lhs.false
  %8 = load ptr, ptr %s.addr, align 8
  %norintsts7 = getelementptr inbounds %struct.SDHCIState, ptr %8, i32 0, i32 25
  %9 = load i16, ptr %norintsts7, align 4
  %conv8 = zext i16 %9 to i32
  %and9 = and i32 %conv8, 64
  %tobool10 = icmp ne i32 %and9, 0
  br i1 %tobool10, label %land.lhs.true, label %lor.rhs

land.lhs.true:                                    ; preds = %lor.lhs.false6
  %10 = load ptr, ptr %s.addr, align 8
  %wakcon = getelementptr inbounds %struct.SDHCIState, ptr %10, i32 0, i32 21
  %11 = load i8, ptr %wakcon, align 1
  %conv11 = zext i8 %11 to i32
  %and12 = and i32 %conv11, 2
  %tobool13 = icmp ne i32 %and12, 0
  br i1 %tobool13, label %lor.end, label %lor.rhs

lor.rhs:                                          ; preds = %land.lhs.true, %lor.lhs.false6
  %12 = load ptr, ptr %s.addr, align 8
  %norintsts14 = getelementptr inbounds %struct.SDHCIState, ptr %12, i32 0, i32 25
  %13 = load i16, ptr %norintsts14, align 4
  %conv15 = zext i16 %13 to i32
  %and16 = and i32 %conv15, 128
  %tobool17 = icmp ne i32 %and16, 0
  br i1 %tobool17, label %land.rhs, label %land.end

land.rhs:                                         ; preds = %lor.rhs
  %14 = load ptr, ptr %s.addr, align 8
  %wakcon18 = getelementptr inbounds %struct.SDHCIState, ptr %14, i32 0, i32 21
  %15 = load i8, ptr %wakcon18, align 1
  %conv19 = zext i8 %15 to i32
  %and20 = and i32 %conv19, 4
  %tobool21 = icmp ne i32 %and20, 0
  br label %land.end

land.end:                                         ; preds = %land.rhs, %lor.rhs
  %16 = phi i1 [ false, %lor.rhs ], [ %tobool21, %land.rhs ]
  br label %lor.end

lor.end:                                          ; preds = %land.end, %land.lhs.true, %lor.lhs.false, %entry
  %17 = phi i1 [ true, %land.lhs.true ], [ true, %lor.lhs.false ], [ true, %entry ], [ %16, %land.end ]
  %lor.ext = zext i1 %17 to i32
  %conv22 = trunc i32 %lor.ext to i8
  ret i8 %conv22
}

; Function Attrs: nounwind sspstrong uwtable
define internal zeroext i1 @sdhci_update_irq(ptr noundef %s) #0 {
entry:
  %s.addr = alloca ptr, align 8
  %pending = alloca i8, align 1
  store ptr %s, ptr %s.addr, align 8
  %0 = load ptr, ptr %s.addr, align 8
  %call = call zeroext i8 @sdhci_slotint(ptr noundef %0)
  %tobool = icmp ne i8 %call, 0
  %frombool = zext i1 %tobool to i8
  store i8 %frombool, ptr %pending, align 1
  %1 = load ptr, ptr %s.addr, align 8
  %irq = getelementptr inbounds %struct.SDHCIState, ptr %1, i32 0, i32 9
  %2 = load ptr, ptr %irq, align 16
  %3 = load i8, ptr %pending, align 1
  %tobool1 = trunc i8 %3 to i1
  %conv = zext i1 %tobool1 to i32
  call void @qemu_set_irq(ptr noundef %2, i32 noundef %conv)
  %4 = load i8, ptr %pending, align 1
  %tobool2 = trunc i8 %4 to i1
  ret i1 %tobool2
}

; Function Attrs: nounwind sspstrong uwtable
define internal i32 @extract32(i32 noundef %value, i32 noundef %start, i32 noundef %length) #0 {
entry:
  %value.addr = alloca i32, align 4
  %start.addr = alloca i32, align 4
  %length.addr = alloca i32, align 4
  store i32 %value, ptr %value.addr, align 4
  store i32 %start, ptr %start.addr, align 4
  store i32 %length, ptr %length.addr, align 4
  %0 = load i32, ptr %start.addr, align 4
  %cmp = icmp sge i32 %0, 0
  br i1 %cmp, label %land.lhs.true, label %if.else

land.lhs.true:                                    ; preds = %entry
  %1 = load i32, ptr %length.addr, align 4
  %cmp1 = icmp sgt i32 %1, 0
  br i1 %cmp1, label %land.lhs.true2, label %if.else

land.lhs.true2:                                   ; preds = %land.lhs.true
  %2 = load i32, ptr %length.addr, align 4
  %3 = load i32, ptr %start.addr, align 4
  %sub = sub i32 32, %3
  %cmp3 = icmp sle i32 %2, %sub
  br i1 %cmp3, label %if.then, label %if.else

if.then:                                          ; preds = %land.lhs.true2
  br label %if.end

if.else:                                          ; preds = %land.lhs.true2, %land.lhs.true, %entry
  call void @__assert_fail(ptr noundef @.str.52, ptr noundef @.str.51, i32 noundef 338, ptr noundef @__PRETTY_FUNCTION__.extract32) #12
  unreachable

if.end:                                           ; preds = %if.then
  %4 = load i32, ptr %value.addr, align 4
  %5 = load i32, ptr %start.addr, align 4
  %shr = lshr i32 %4, %5
  %6 = load i32, ptr %length.addr, align 4
  %sub4 = sub i32 32, %6
  %shr5 = lshr i32 -1, %sub4
  %and = and i32 %shr, %shr5
  ret i32 %and
}

; Function Attrs: nounwind sspstrong uwtable
define internal void @sdhci_read_block_from_card(ptr noundef %s) #0 {
entry:
  %s.addr = alloca ptr, align 8
  %blk_size = alloca i16, align 2
  store ptr %s, ptr %s.addr, align 8
  %0 = load ptr, ptr %s.addr, align 8
  %blksize = getelementptr inbounds %struct.SDHCIState, ptr %0, i32 0, i32 11
  %1 = load i16, ptr %blksize, align 4
  %conv = zext i16 %1 to i64
  %and = and i64 %conv, 4095
  %conv1 = trunc i64 %and to i16
  store i16 %conv1, ptr %blk_size, align 2
  %2 = load ptr, ptr %s.addr, align 8
  %trnmod = getelementptr inbounds %struct.SDHCIState, ptr %2, i32 0, i32 14
  %3 = load i16, ptr %trnmod, align 4
  %conv2 = zext i16 %3 to i32
  %and3 = and i32 %conv2, 32
  %tobool = icmp ne i32 %and3, 0
  br i1 %tobool, label %land.lhs.true, label %if.end

land.lhs.true:                                    ; preds = %entry
  %4 = load ptr, ptr %s.addr, align 8
  %trnmod4 = getelementptr inbounds %struct.SDHCIState, ptr %4, i32 0, i32 14
  %5 = load i16, ptr %trnmod4, align 4
  %conv5 = zext i16 %5 to i32
  %and6 = and i32 %conv5, 2
  %tobool7 = icmp ne i32 %and6, 0
  br i1 %tobool7, label %land.lhs.true8, label %if.end

land.lhs.true8:                                   ; preds = %land.lhs.true
  %6 = load ptr, ptr %s.addr, align 8
  %blkcnt = getelementptr inbounds %struct.SDHCIState, ptr %6, i32 0, i32 12
  %7 = load i16, ptr %blkcnt, align 2
  %conv9 = zext i16 %7 to i32
  %cmp = icmp eq i32 %conv9, 0
  br i1 %cmp, label %if.then, label %if.end

if.then:                                          ; preds = %land.lhs.true8
  br label %return

if.end:                                           ; preds = %land.lhs.true8, %land.lhs.true, %entry
  %8 = load ptr, ptr %s.addr, align 8
  %hostctl2 = getelementptr inbounds %struct.SDHCIState, ptr %8, i32 0, i32 32
  %9 = load i16, ptr %hostctl2, align 2
  %conv11 = zext i16 %9 to i32
  %call = call i32 @extract32(i32 noundef %conv11, i32 noundef 6, i32 noundef 1)
  %tobool12 = icmp ne i32 %call, 0
  br i1 %tobool12, label %if.end15, label %if.then13

if.then13:                                        ; preds = %if.end
  %10 = load ptr, ptr %s.addr, align 8
  %sdbus = getelementptr inbounds %struct.SDHCIState, ptr %10, i32 0, i32 1
  %11 = load ptr, ptr %s.addr, align 8
  %fifo_buffer = getelementptr inbounds %struct.SDHCIState, ptr %11, i32 0, i32 38
  %12 = load ptr, ptr %fifo_buffer, align 16
  %13 = load i16, ptr %blk_size, align 2
  %conv14 = zext i16 %13 to i64
  call void @sdbus_read_data(ptr noundef %sdbus, ptr noundef %12, i64 noundef %conv14)
  br label %if.end15

if.end15:                                         ; preds = %if.then13, %if.end
  %14 = load ptr, ptr %s.addr, align 8
  %hostctl216 = getelementptr inbounds %struct.SDHCIState, ptr %14, i32 0, i32 32
  %15 = load i16, ptr %hostctl216, align 2
  %conv17 = zext i16 %15 to i32
  %call18 = call i32 @extract32(i32 noundef %conv17, i32 noundef 6, i32 noundef 1)
  %tobool19 = icmp ne i32 %call18, 0
  br i1 %tobool19, label %if.then20, label %if.end29

if.then20:                                        ; preds = %if.end15
  %16 = load ptr, ptr %s.addr, align 8
  %hostctl221 = getelementptr inbounds %struct.SDHCIState, ptr %16, i32 0, i32 32
  %17 = load i16, ptr %hostctl221, align 2
  %conv22 = zext i16 %17 to i32
  %and23 = and i32 %conv22, -65
  %conv24 = trunc i32 %and23 to i16
  store i16 %conv24, ptr %hostctl221, align 2
  %18 = load ptr, ptr %s.addr, align 8
  %hostctl225 = getelementptr inbounds %struct.SDHCIState, ptr %18, i32 0, i32 32
  %19 = load i16, ptr %hostctl225, align 2
  %conv26 = zext i16 %19 to i32
  %or = or i32 %conv26, 128
  %conv27 = trunc i32 %or to i16
  store i16 %conv27, ptr %hostctl225, align 2
  %20 = load ptr, ptr %s.addr, align 8
  %prnsts = getelementptr inbounds %struct.SDHCIState, ptr %20, i32 0, i32 17
  %21 = load i32, ptr %prnsts, align 8
  %and28 = and i32 %21, -519
  store i32 %and28, ptr %prnsts, align 8
  br label %read_done

if.end29:                                         ; preds = %if.end15
  %22 = load ptr, ptr %s.addr, align 8
  %prnsts30 = getelementptr inbounds %struct.SDHCIState, ptr %22, i32 0, i32 17
  %23 = load i32, ptr %prnsts30, align 8
  %or31 = or i32 %23, 2048
  store i32 %or31, ptr %prnsts30, align 8
  %24 = load ptr, ptr %s.addr, align 8
  %norintstsen = getelementptr inbounds %struct.SDHCIState, ptr %24, i32 0, i32 27
  %25 = load i16, ptr %norintstsen, align 8
  %conv32 = zext i16 %25 to i32
  %and33 = and i32 %conv32, 32
  %tobool34 = icmp ne i32 %and33, 0
  br i1 %tobool34, label %if.then35, label %if.end39

if.then35:                                        ; preds = %if.end29
  %26 = load ptr, ptr %s.addr, align 8
  %norintsts = getelementptr inbounds %struct.SDHCIState, ptr %26, i32 0, i32 25
  %27 = load i16, ptr %norintsts, align 4
  %conv36 = zext i16 %27 to i32
  %or37 = or i32 %conv36, 32
  %conv38 = trunc i32 %or37 to i16
  store i16 %conv38, ptr %norintsts, align 4
  br label %if.end39

if.end39:                                         ; preds = %if.then35, %if.end29
  %28 = load ptr, ptr %s.addr, align 8
  %trnmod40 = getelementptr inbounds %struct.SDHCIState, ptr %28, i32 0, i32 14
  %29 = load i16, ptr %trnmod40, align 4
  %conv41 = zext i16 %29 to i32
  %and42 = and i32 %conv41, 32
  %cmp43 = icmp eq i32 %and42, 0
  br i1 %cmp43, label %if.then54, label %lor.lhs.false

lor.lhs.false:                                    ; preds = %if.end39
  %30 = load ptr, ptr %s.addr, align 8
  %trnmod45 = getelementptr inbounds %struct.SDHCIState, ptr %30, i32 0, i32 14
  %31 = load i16, ptr %trnmod45, align 4
  %conv46 = zext i16 %31 to i32
  %and47 = and i32 %conv46, 32
  %tobool48 = icmp ne i32 %and47, 0
  br i1 %tobool48, label %land.lhs.true49, label %if.end57

land.lhs.true49:                                  ; preds = %lor.lhs.false
  %32 = load ptr, ptr %s.addr, align 8
  %blkcnt50 = getelementptr inbounds %struct.SDHCIState, ptr %32, i32 0, i32 12
  %33 = load i16, ptr %blkcnt50, align 2
  %conv51 = zext i16 %33 to i32
  %cmp52 = icmp eq i32 %conv51, 1
  br i1 %cmp52, label %if.then54, label %if.end57

if.then54:                                        ; preds = %land.lhs.true49, %if.end39
  %34 = load ptr, ptr %s.addr, align 8
  %prnsts55 = getelementptr inbounds %struct.SDHCIState, ptr %34, i32 0, i32 17
  %35 = load i32, ptr %prnsts55, align 8
  %and56 = and i32 %35, -5
  store i32 %and56, ptr %prnsts55, align 8
  br label %if.end57

if.end57:                                         ; preds = %if.then54, %land.lhs.true49, %lor.lhs.false
  %36 = load ptr, ptr %s.addr, align 8
  %stopped_state = getelementptr inbounds %struct.SDHCIState, ptr %36, i32 0, i32 41
  %37 = load i8, ptr %stopped_state, align 2
  %conv58 = zext i8 %37 to i32
  %cmp59 = icmp eq i32 %conv58, 1
  br i1 %cmp59, label %land.lhs.true61, label %if.end84

land.lhs.true61:                                  ; preds = %if.end57
  %38 = load ptr, ptr %s.addr, align 8
  %trnmod62 = getelementptr inbounds %struct.SDHCIState, ptr %38, i32 0, i32 14
  %39 = load i16, ptr %trnmod62, align 4
  %conv63 = zext i16 %39 to i32
  %and64 = and i32 %conv63, 32
  %tobool65 = icmp ne i32 %and64, 0
  br i1 %tobool65, label %land.lhs.true66, label %if.end84

land.lhs.true66:                                  ; preds = %land.lhs.true61
  %40 = load ptr, ptr %s.addr, align 8
  %blkcnt67 = getelementptr inbounds %struct.SDHCIState, ptr %40, i32 0, i32 12
  %41 = load i16, ptr %blkcnt67, align 2
  %conv68 = zext i16 %41 to i32
  %cmp69 = icmp ne i32 %conv68, 1
  br i1 %cmp69, label %if.then71, label %if.end84

if.then71:                                        ; preds = %land.lhs.true66
  %42 = load ptr, ptr %s.addr, align 8
  %prnsts72 = getelementptr inbounds %struct.SDHCIState, ptr %42, i32 0, i32 17
  %43 = load i32, ptr %prnsts72, align 8
  %and73 = and i32 %43, -5
  store i32 %and73, ptr %prnsts72, align 8
  %44 = load ptr, ptr %s.addr, align 8
  %norintstsen74 = getelementptr inbounds %struct.SDHCIState, ptr %44, i32 0, i32 27
  %45 = load i16, ptr %norintstsen74, align 8
  %conv75 = zext i16 %45 to i32
  %and76 = and i32 %conv75, 4
  %tobool77 = icmp ne i32 %and76, 0
  br i1 %tobool77, label %if.then78, label %if.end83

if.then78:                                        ; preds = %if.then71
  %46 = load ptr, ptr %s.addr, align 8
  %norintsts79 = getelementptr inbounds %struct.SDHCIState, ptr %46, i32 0, i32 25
  %47 = load i16, ptr %norintsts79, align 4
  %conv80 = zext i16 %47 to i32
  %or81 = or i32 %conv80, 4
  %conv82 = trunc i32 %or81 to i16
  store i16 %conv82, ptr %norintsts79, align 4
  br label %if.end83

if.end83:                                         ; preds = %if.then78, %if.then71
  br label %if.end84

if.end84:                                         ; preds = %if.end83, %land.lhs.true66, %land.lhs.true61, %if.end57
  br label %read_done

read_done:                                        ; preds = %if.end84, %if.then20
  %48 = load ptr, ptr %s.addr, align 8
  %call85 = call zeroext i1 @sdhci_update_irq(ptr noundef %48)
  br label %return

return:                                           ; preds = %read_done, %if.then
  ret void
}