; Function Attrs: nounwind sspstrong uwtable
define internal fastcc void @sdhci_read_block_from_card(ptr noundef %s) unnamed_addr #0 {
entry:
  %blksize = getelementptr inbounds nuw i8, ptr %s, i64 3148
  %0 = load i16, ptr %blksize, align 4
  %1 = and i16 %0, 4095
  %trnmod = getelementptr inbounds nuw i8, ptr %s, i64 3156
  %2 = load i16, ptr %trnmod, align 4
  %3 = and i16 %2, 34
  %or.cond.not = icmp eq i16 %3, 34
  br i1 %or.cond.not, label %land.lhs.true8, label %if.end

land.lhs.true8:                                   ; preds = %entry
  %blkcnt = getelementptr inbounds nuw i8, ptr %s, i64 3150
  %4 = load i16, ptr %blkcnt, align 2
  %cmp = icmp eq i16 %4, 0
  br i1 %cmp, label %return, label %if.end

if.end:                                           ; preds = %land.lhs.true8, %entry
  %hostctl2 = getelementptr inbounds nuw i8, ptr %s, i64 3202
  %5 = load i16, ptr %hostctl2, align 2
  %6 = and i16 %5, 64
  %tobool12.not = icmp eq i16 %6, 0
  br i1 %tobool12.not, label %if.then13, label %if.end15

if.then13:                                        ; preds = %if.end
  %sdbus = getelementptr inbounds nuw i8, ptr %s, i64 2608
  %fifo_buffer = getelementptr inbounds nuw i8, ptr %s, i64 3248
  %7 = load ptr, ptr %fifo_buffer, align 16
  %conv14 = zext nneg i16 %1 to i64
  tail call void @sdbus_read_data(ptr noundef nonnull %sdbus, ptr noundef %7, i64 noundef %conv14) #12
  %.pre = load i16, ptr %hostctl2, align 2
  br label %if.end15

if.end15:                                         ; preds = %if.then13, %if.end
  %8 = phi i16 [ %.pre, %if.then13 ], [ %5, %if.end ]
  %9 = and i16 %8, 64
  %tobool19.not = icmp eq i16 %9, 0
  br i1 %tobool19.not, label %if.end29, label %if.then20

if.then20:                                        ; preds = %if.end15
  %10 = and i16 %8, -193
  %11 = or disjoint i16 %10, 128
  store i16 %11, ptr %hostctl2, align 2
  %prnsts = getelementptr inbounds nuw i8, ptr %s, i64 3176
  %12 = load i32, ptr %prnsts, align 8
  %and28 = and i32 %12, -519
  store i32 %and28, ptr %prnsts, align 8
  br label %read_done

if.end29:                                         ; preds = %if.end15
  %prnsts30 = getelementptr inbounds nuw i8, ptr %s, i64 3176
  %13 = load i32, ptr %prnsts30, align 8
  %or31 = or i32 %13, 2048
  store i32 %or31, ptr %prnsts30, align 8
  %norintstsen = getelementptr inbounds nuw i8, ptr %s, i64 3192
  %14 = load i16, ptr %norintstsen, align 8
  %15 = and i16 %14, 32
  %tobool34.not = icmp eq i16 %15, 0
  br i1 %tobool34.not, label %if.end39, label %if.then35

if.then35:                                        ; preds = %if.end29
  %norintsts = getelementptr inbounds nuw i8, ptr %s, i64 3188
  %16 = load i16, ptr %norintsts, align 4
  %17 = or i16 %16, 32
  store i16 %17, ptr %norintsts, align 4
  br label %if.end39

if.end39:                                         ; preds = %if.then35, %if.end29
  %18 = load i16, ptr %trnmod, align 4
  %19 = and i16 %18, 32
  %cmp43 = icmp eq i16 %19, 0
  br i1 %cmp43, label %if.end57, label %land.lhs.true49

land.lhs.true49:                                  ; preds = %if.end39
  %blkcnt50 = getelementptr inbounds nuw i8, ptr %s, i64 3150
  %20 = load i16, ptr %blkcnt50, align 2
  %cmp52 = icmp eq i16 %20, 1
  br i1 %cmp52, label %if.end57.thread29, label %if.end57.thread

if.end57:                                         ; preds = %if.end39
  %and56 = and i32 %or31, -5
  store i32 %and56, ptr %prnsts30, align 8
  br label %read_done

if.end57.thread29:                                ; preds = %land.lhs.true49
  %and5630 = and i32 %or31, -5
  store i32 %and5630, ptr %prnsts30, align 8
  br label %read_done

if.end57.thread:                                  ; preds = %land.lhs.true49
  %stopped_state27 = getelementptr inbounds nuw i8, ptr %s, i64 3262
  %21 = load i8, ptr %stopped_state27, align 2
  %cmp5928 = icmp eq i8 %21, 1
  br i1 %cmp5928, label %if.then71, label %read_done

if.then71:                                        ; preds = %if.end57.thread
  %and73 = and i32 %or31, -5
  store i32 %and73, ptr %prnsts30, align 8
  %22 = and i16 %14, 4
  %tobool77.not = icmp eq i16 %22, 0
  br i1 %tobool77.not, label %read_done, label %if.then78

if.then78:                                        ; preds = %if.then71
  %norintsts79 = getelementptr inbounds nuw i8, ptr %s, i64 3188
  %23 = load i16, ptr %norintsts79, align 4
  %24 = or i16 %23, 4
  store i16 %24, ptr %norintsts79, align 4
  br label %read_done

read_done:                                        ; preds = %if.end57.thread29, %if.end57, %if.end57.thread, %if.then78, %if.then71, %if.then20
  %norintsts.i.i = getelementptr inbounds nuw i8, ptr %s, i64 3188
  %25 = load i16, ptr %norintsts.i.i, align 4
  %norintsigen.i.i = getelementptr inbounds nuw i8, ptr %s, i64 3196
  %26 = load i16, ptr %norintsigen.i.i, align 4
  %and8.i.i = and i16 %26, %25
  %tobool.not.i.i = icmp eq i16 %and8.i.i, 0
  br i1 %tobool.not.i.i, label %lor.lhs.false.i.i, label %sdhci_update_irq.exit

lor.lhs.false.i.i:                                ; preds = %read_done
  %errintsts.i.i = getelementptr inbounds nuw i8, ptr %s, i64 3190
  %27 = load i16, ptr %errintsts.i.i, align 2
  %errintsigen.i.i = getelementptr inbounds nuw i8, ptr %s, i64 3198
  %28 = load i16, ptr %errintsigen.i.i, align 2
  %and49.i.i = and i16 %28, %27
  %tobool5.not.i.i = icmp eq i16 %and49.i.i, 0
  br i1 %tobool5.not.i.i, label %lor.lhs.false6.i.i, label %sdhci_update_irq.exit

lor.lhs.false6.i.i:                               ; preds = %lor.lhs.false.i.i
  %29 = and i16 %25, 64
  %tobool10.not.i.i = icmp eq i16 %29, 0
  br i1 %tobool10.not.i.i, label %lor.rhs.i.i, label %land.lhs.true.i.i

land.lhs.true.i.i:                                ; preds = %lor.lhs.false6.i.i
  %wakcon.i.i = getelementptr inbounds nuw i8, ptr %s, i64 3183
  %30 = load i8, ptr %wakcon.i.i, align 1
  %31 = and i8 %30, 2
  %tobool13.not.i.i = icmp eq i8 %31, 0
  br i1 %tobool13.not.i.i, label %lor.rhs.i.i, label %sdhci_update_irq.exit

lor.rhs.i.i:                                      ; preds = %land.lhs.true.i.i, %lor.lhs.false6.i.i
  %32 = and i16 %25, 128
  %tobool17.not.i.i = icmp eq i16 %32, 0
  br i1 %tobool17.not.i.i, label %sdhci_update_irq.exit, label %land.rhs.i.i

land.rhs.i.i:                                     ; preds = %lor.rhs.i.i
  %wakcon18.i.i = getelementptr inbounds nuw i8, ptr %s, i64 3183
  %33 = load i8, ptr %wakcon18.i.i, align 1
  %34 = lshr i8 %33, 2
  %.lobit.i.i = and i8 %34, 1
  %35 = zext nneg i8 %.lobit.i.i to i32
  br label %sdhci_update_irq.exit

sdhci_update_irq.exit:                            ; preds = %read_done, %lor.lhs.false.i.i, %land.lhs.true.i.i, %lor.rhs.i.i, %land.rhs.i.i
  %conv22.i.i = phi i32 [ 1, %land.lhs.true.i.i ], [ 1, %lor.lhs.false.i.i ], [ 1, %read_done ], [ 0, %lor.rhs.i.i ], [ %35, %land.rhs.i.i ]
  %irq.i = getelementptr inbounds nuw i8, ptr %s, i64 3136
  %36 = load ptr, ptr %irq.i, align 16
  tail call void @qemu_set_irq(ptr noundef %36, i32 noundef %conv22.i.i) #12
  br label %return

return:                                           ; preds = %land.lhs.true8, %sdhci_update_irq.exit
  ret void
}